target datalayout = "e-m:e-p270:32:32-p271:32:32-p272:64:64-i64:64-i128:128-f80:128-n8:16:32:64-S128"
target triple = "x86_64-pc-linux-gnu"

%"class.icu_77::UCharCharacterIterator" = type { %"class.icu_77::CharacterIterator", ptr }
%"class.icu_77::CharacterIterator" = type { %"class.icu_77::ForwardCharacterIterator", i32, i32, i32, i32 }
%"class.icu_77::ForwardCharacterIterator" = type { %"class.icu_77::UObject" }
%"class.icu_77::UObject" = type { ptr }
%"class.icu_77::UnicodeString" = type { %"class.icu_77::Replaceable", %"union.icu_77::UnicodeString::StackBufferOrFields" }
%"class.icu_77::Replaceable" = type { %"class.icu_77::UObject" }
%"union.icu_77::UnicodeString::StackBufferOrFields" = type { %struct.anon.0, [32 x i8] }
%struct.anon.0 = type { i16, i32, i32, ptr }

; Function Attrs: mustprogress uwtable
define void @_ZN6icu_7722UCharCharacterIterator7getTextERNS_13UnicodeStringE(ptr noundef nonnull align 8 dereferenceable(32) %0, ptr noundef nonnull align 8 dereferenceable(64) %1) unnamed_addr #1 align 2 {
  %3 = alloca ptr, align 8
  %4 = alloca ptr, align 8
  %5 = alloca %"class.icu_77::UnicodeString", align 8
  store ptr %0, ptr %3, align 8, !tbaa !3
  store ptr %1, ptr %4, align 8, !tbaa !39
  %6 = load ptr, ptr %3, align 8
  call void @llvm.lifetime.start.p0(i64 64, ptr %5) #7
  %7 = getelementptr inbounds nuw %"class.icu_77::UCharCharacterIterator", ptr %6, i32 0, i32 1
  %8 = load ptr, ptr %7, align 8, !tbaa !10
  %9 = getelementptr inbounds nuw %"class.icu_77::CharacterIterator", ptr %6, i32 0, i32 1
  %10 = load i32, ptr %9, align 8, !tbaa !22
  call void @_ZN6icu_7713UnicodeStringC1EPKDsi(ptr noundef nonnull align 8 dereferenceable(64) %5, ptr noundef %8, i32 noundef %10)
  %11 = load ptr, ptr %4, align 8, !tbaa !39
  %12 = call noundef nonnull align 8 dereferenceable(64) ptr @_ZN6icu_7713UnicodeStringaSEOS0_(ptr noundef nonnull align 8 dereferenceable(64) %11, ptr noundef nonnull align 8 dereferenceable(64) %5) #7
  call void @_ZN6icu_7713UnicodeStringD1Ev(ptr noundef nonnull align 8 dereferenceable(64) %5) #7
  call void @llvm.lifetime.end.p0(i64 64, ptr %5) #7
  ret void
}