; Function Attrs: mustprogress uwtable
define void @_ZN6icu_7722UCharCharacterIterator7getTextERNS_13UnicodeStringE(ptr noundef nonnull readonly align 8 captures(none) dereferenceable(32) %0, ptr noundef nonnull align 8 dereferenceable(64) %1) unnamed_addr #1 align 2 {
  %3 = alloca %"class.icu_77::UnicodeString", align 8
  call void @llvm.lifetime.start.p0(i64 64, ptr nonnull %3) #14
  %4 = getelementptr inbounds nuw i8, ptr %0, i64 24
  %5 = load ptr, ptr %4, align 8, !tbaa !6
  %6 = getelementptr inbounds nuw i8, ptr %0, i64 8
  %7 = load i32, ptr %6, align 8, !tbaa !21
  call void @_ZN6icu_7713UnicodeStringC1EPKDsi(ptr noundef nonnull align 8 dereferenceable(64) %3, ptr noundef %5, i32 noundef %7)
  %8 = call noundef nonnull align 8 dereferenceable(64) ptr @_ZN6icu_7713UnicodeStringaSEOS0_(ptr noundef nonnull align 8 dereferenceable(64) %1, ptr noundef nonnull align 8 dereferenceable(64) %3) #14
  call void @_ZN6icu_7713UnicodeStringD1Ev(ptr noundef nonnull align 8 dereferenceable(64) %3) #14
  call void @llvm.lifetime.end.p0(i64 64, ptr nonnull %3) #14
  ret void
}